target datalayout = "e-m:e-p270:32:32-p271:32:32-p272:64:64-i64:64-i128:128-f80:128-n8:16:32:64-S128"
target triple = "x86_64-pc-linux-gnu"

%struct.Fraig_ManStruct_t_ = type { ptr, ptr, ptr, ptr, ptr, ptr, ptr, ptr, ptr, i32, i32, i32, i32, i32, i32, i32, i32, i32, i32, i32, i32, i64, i32, i32, i32, i32, i32, ptr, ptr, ptr, ptr, ptr, i32, ptr, ptr, ptr, ptr, ptr, ptr, i32, ptr, ptr, ptr, ptr, i32, i32, i32, i32, i32, i32, i32, i32, i32, i32, i32, i32, i32, i32, i32, i32, i32, i32, i32, i64, i64, i64, i64, i64, i64, i64, i64, i64, i64, i64, i64 }
%struct.Fraig_NodeStruct_t_ = type { i32, i32, i32, i32, i32, i32, i32, ptr, ptr, ptr, ptr, ptr, ptr, ptr, ptr, i32, i32, ptr, ptr, ptr, ptr, ptr, ptr, ptr }

; Function Attrs: nounwind uwtable
define i32 @Fraig_NodeSimsContained(ptr noundef %0, ptr noundef %1, ptr noundef %2) #0 {
  %4 = alloca i32, align 4
  %5 = alloca ptr, align 8
  %6 = alloca ptr, align 8
  %7 = alloca ptr, align 8
  %8 = alloca ptr, align 8
  %9 = alloca ptr, align 8
  %10 = alloca i32, align 4
  store ptr %0, ptr %5, align 8
  store ptr %1, ptr %6, align 8
  store ptr %2, ptr %7, align 8
  %11 = load ptr, ptr %6, align 8
  %12 = getelementptr inbounds %struct.Fraig_NodeStruct_t_, ptr %11, i32 0, i32 17
  %13 = load ptr, ptr %12, align 8
  store ptr %13, ptr %8, align 8
  %14 = load ptr, ptr %7, align 8
  %15 = getelementptr inbounds %struct.Fraig_NodeStruct_t_, ptr %14, i32 0, i32 17
  %16 = load ptr, ptr %15, align 8
  store ptr %16, ptr %9, align 8
  store i32 0, ptr %10, align 4
  br label %17

17:                                               ; preds = %39, %3
  %18 = load i32, ptr %10, align 4
  %19 = load ptr, ptr %5, align 8
  %20 = getelementptr inbounds %struct.Fraig_ManStruct_t_, ptr %19, i32 0, i32 9
  %21 = load i32, ptr %20, align 8
  %22 = icmp slt i32 %18, %21
  br i1 %22, label %23, label %42

23:                                               ; preds = %17
  %24 = load ptr, ptr %8, align 8
  %25 = load i32, ptr %10, align 4
  %26 = sext i32 %25 to i64
  %27 = getelementptr inbounds i32, ptr %24, i64 %26
  %28 = load i32, ptr %27, align 4
  %29 = load ptr, ptr %9, align 8
  %30 = load i32, ptr %10, align 4
  %31 = sext i32 %30 to i64
  %32 = getelementptr inbounds i32, ptr %29, i64 %31
  %33 = load i32, ptr %32, align 4
  %34 = xor i32 %33, -1
  %35 = and i32 %28, %34
  %36 = icmp ne i32 %35, 0
  br i1 %36, label %37, label %38

37:                                               ; preds = %23
  store i32 0, ptr %4, align 4
  br label %75

38:                                               ; preds = %23
  br label %39

39:                                               ; preds = %38
  %40 = load i32, ptr %10, align 4
  %41 = add nsw i32 %40, 1
  store i32 %41, ptr %10, align 4
  br label %17, !llvm.loop !21

42:                                               ; preds = %17
  %43 = load ptr, ptr %6, align 8
  %44 = getelementptr inbounds %struct.Fraig_NodeStruct_t_, ptr %43, i32 0, i32 18
  %45 = load ptr, ptr %44, align 8
  store ptr %45, ptr %8, align 8
  %46 = load ptr, ptr %7, align 8
  %47 = getelementptr inbounds %struct.Fraig_NodeStruct_t_, ptr %46, i32 0, i32 18
  %48 = load ptr, ptr %47, align 8
  store ptr %48, ptr %9, align 8
  store i32 0, ptr %10, align 4
  br label %49

49:                                               ; preds = %71, %42
  %50 = load i32, ptr %10, align 4
  %51 = load ptr, ptr %5, align 8
  %52 = getelementptr inbounds %struct.Fraig_ManStruct_t_, ptr %51, i32 0, i32 24
  %53 = load i32, ptr %52, align 8
  %54 = icmp slt i32 %50, %53
  br i1 %54, label %55, label %74

55:                                               ; preds = %49
  %56 = load ptr, ptr %8, align 8
  %57 = load i32, ptr %10, align 4
  %58 = sext i32 %57 to i64
  %59 = getelementptr inbounds i32, ptr %56, i64 %58
  %60 = load i32, ptr %59, align 4
  %61 = load ptr, ptr %9, align 8
  %62 = load i32, ptr %10, align 4
  %63 = sext i32 %62 to i64
  %64 = getelementptr inbounds i32, ptr %61, i64 %63
  %65 = load i32, ptr %64, align 4
  %66 = xor i32 %65, -1
  %67 = and i32 %60, %66
  %68 = icmp ne i32 %67, 0
  br i1 %68, label %69, label %70

69:                                               ; preds = %55
  store i32 0, ptr %4, align 4
  br label %75

70:                                               ; preds = %55
  br label %71

71:                                               ; preds = %70
  %72 = load i32, ptr %10, align 4
  %73 = add nsw i32 %72, 1
  store i32 %73, ptr %10, align 4
  br label %49, !llvm.loop !22

74:                                               ; preds = %49
  store i32 1, ptr %4, align 4
  br label %75

75:                                               ; preds = %74, %69, %37
  %76 = load i32, ptr %4, align 4
  ret i32 %76
}