; Function Attrs: nofree norecurse nosync nounwind memory(read, inaccessiblemem: none) uwtable
define range(i32 0, 2) i32 @Fraig_NodeSimsContained(ptr noundef readonly captures(none) %0, ptr noundef readonly captures(none) %1, ptr noundef readonly captures(none) %2) local_unnamed_addr #6 {
  %4 = getelementptr inbounds nuw i8, ptr %1, i64 104
  %5 = load ptr, ptr %4, align 8
  %6 = getelementptr inbounds nuw i8, ptr %2, i64 104
  %7 = load ptr, ptr %6, align 8
  %8 = getelementptr inbounds nuw i8, ptr %0, i64 72
  %9 = load i32, ptr %8, align 8
  %10 = icmp sgt i32 %9, 0
  br i1 %10, label %.lr.ph.preheader, label %._crit_edge

.lr.ph.preheader:                                 ; preds = %3
  %wide.trip.count = zext nneg i32 %9 to i64
  br label %.lr.ph

11:                                               ; preds = %.lr.ph
  %indvars.iv.next = add nuw nsw i64 %indvars.iv, 1
  %exitcond.not = icmp eq i64 %indvars.iv.next, %wide.trip.count
  br i1 %exitcond.not, label %._crit_edge, label %.lr.ph, !llvm.loop !21

.lr.ph:                                           ; preds = %.lr.ph.preheader, %11
  %indvars.iv = phi i64 [ 0, %.lr.ph.preheader ], [ %indvars.iv.next, %11 ]
  %12 = getelementptr inbounds nuw i32, ptr %5, i64 %indvars.iv
  %13 = load i32, ptr %12, align 4
  %14 = getelementptr inbounds nuw i32, ptr %7, i64 %indvars.iv
  %15 = load i32, ptr %14, align 4
  %16 = xor i32 %15, -1
  %17 = and i32 %13, %16
  %.not19 = icmp eq i32 %17, 0
  br i1 %.not19, label %11, label %.loopexit

._crit_edge:                                      ; preds = %11, %3
  %18 = getelementptr inbounds nuw i8, ptr %1, i64 112
  %19 = load ptr, ptr %18, align 8
  %20 = getelementptr inbounds nuw i8, ptr %2, i64 112
  %21 = load ptr, ptr %20, align 8
  %22 = getelementptr inbounds nuw i8, ptr %0, i64 136
  %23 = load i32, ptr %22, align 8
  %24 = icmp sgt i32 %23, 0
  br i1 %24, label %.lr.ph24.preheader, label %.loopexit

.lr.ph24.preheader:                               ; preds = %._crit_edge
  %wide.trip.count32 = zext nneg i32 %23 to i64
  br label %.lr.ph24

25:                                               ; preds = %.lr.ph24
  %indvars.iv.next30 = add nuw nsw i64 %indvars.iv29, 1
  %exitcond33.not = icmp eq i64 %indvars.iv.next30, %wide.trip.count32
  br i1 %exitcond33.not, label %.loopexit, label %.lr.ph24, !llvm.loop !22

.lr.ph24:                                         ; preds = %.lr.ph24.preheader, %25
  %indvars.iv29 = phi i64 [ 0, %.lr.ph24.preheader ], [ %indvars.iv.next30, %25 ]
  %26 = getelementptr inbounds nuw i32, ptr %19, i64 %indvars.iv29
  %27 = load i32, ptr %26, align 4
  %28 = getelementptr inbounds nuw i32, ptr %21, i64 %indvars.iv29
  %29 = load i32, ptr %28, align 4
  %30 = xor i32 %29, -1
  %31 = and i32 %27, %30
  %.not = icmp eq i32 %31, 0
  br i1 %.not, label %25, label %.loopexit

.loopexit:                                        ; preds = %.lr.ph, %.lr.ph24, %25, %._crit_edge
  %.018 = phi i32 [ 1, %._crit_edge ], [ 0, %.lr.ph24 ], [ 1, %25 ], [ 0, %.lr.ph ]
  ret i32 %.018
}